(dp0
S'memory_cap'
p1
I10000000
sS'layer_sizes'
p2
(lp3
I256
aI256
asS'epsilon'
p4
cnumpy.core.multiarray
scalar
p5
(cnumpy
dtype
p6
(S'f8'
p7
I0
I1
tp8
Rp9
(I3
S'<'
p10
NNNI-1
I-1
I0
tp11
bS'\x9a\x99\x99\x99\x99\x99\xb9?'
p12
tp13
Rp14
sS'final_eps'
p15
F0.1
sS'epoch_counter'
p16
I5231500
sS'dim_state'
p17
I18
sS'batch_size'
p18
I8192
sS'num_actions'
p19
I4
sS'training_time'
p20
F535594.455652
sS'update_epoch'
p21
I8000
sS'warmup_episodes'
p22
I500
sS'init_eps'
p23
F1.0
sS'learning_rate'
p24
F0.0003
sS'gamma'
p25
F0.99
s.