(dp0
S'num_episodes'
p1
I15000
sS'memory_cap'
p2
I99900
sS'layer_sizes'
p3
(lp4
I64
aI64
asS'epsilon'
p5
cnumpy.core.multiarray
scalar
p6
(cnumpy
dtype
p7
(S'f8'
p8
I0
I1
tp9
Rp10
(I3
S'<'
p11
NNNI-1
I-1
I0
tp12
bS'\x9a\x99\x99\x99\x99\x99\xb9?'
p13
tp14
Rp15
sS'final_eps'
p16
F0.1
sS'epoch_counter'
p17
I1819281
sS'dim_state'
p18
I6
sS'batch_size'
p19
I8192
sS'num_actions'
p20
I4
sS'training_time'
p21
F185272.447303
sS'update_epoch'
p22
I8000
sS'warmup_episodes'
p23
I500
sS'init_eps'
p24
F1.0
sS'decay_period'
p25
I500
sS'learning_rate'
p26
F0.001
sS'gamma'
p27
F0.99
s.