(dp0
S'normalize'
p1
I00
sS'date_time'
p2
S'2019-10-17-15-13'
p3
sS'complete_episodes'
p4
I2256
sS'num_episodes'
p5
I12800
sS'wall_bonus'
p6
I0
sS'num_steps'
p7
I400
sS'door_bonus'
p8
I0
sS'source'
p9
S''
p10
sS'success_bonus'
p11
I0
sS'success_count'
p12
I120
sS'time_bonus'
p13
I0
s.